; ModuleID = '23/773.c'
source_filename = "23/773.c"
target datalayout = "e-m:e-p270:32:32-p271:32:32-p272:64:64-i64:64-f80:128-n8:16:32:64-S128"
target triple = "x86_64-pc-linux-gnu"

@.str = private unnamed_addr constant [4 x i8] c"%s\0A\00", align 1

; Function Attrs: noinline nounwind uwtable
define dso_local i32 @Strlen(i8* %0) #0 {
  %2 = alloca i8*, align 8
  %3 = alloca i32, align 4
  store i8* %0, i8** %2, align 8
  store i32 0, i32* %3, align 4
  store i32 0, i32* %3, align 4
  br label %4

4:                                                ; preds = %13, %1
  %5 = load i8*, i8** %2, align 8
  %6 = load i32, i32* %3, align 4
  %7 = sext i32 %6 to i64
  %8 = getelementptr inbounds i8, i8* %5, i64 %7
  %9 = load i8, i8* %8, align 1
  %10 = sext i8 %9 to i32
  %11 = icmp ne i32 %10, 0
  br i1 %11, label %12, label %16

12:                                               ; preds = %4
  br label %13

13:                                               ; preds = %12
  %14 = load i32, i32* %3, align 4
  %15 = add nsw i32 %14, 1
  store i32 %15, i32* %3, align 4
  br label %4

16:                                               ; preds = %4
  %17 = load i32, i32* %3, align 4
  ret i32 %17
}

; Function Attrs: noinline nounwind uwtable
define dso_local void @main() #0 {
  %1 = alloca [100 x i8], align 16
  %2 = alloca [100 x i8], align 16
  %3 = alloca [20 x i8], align 16
  %4 = alloca i32, align 4
  %5 = alloca i32, align 4
  %6 = alloca i32, align 4
  store i32 0, i32* %6, align 4
  %7 = getelementptr inbounds [100 x i8], [100 x i8]* %1, i64 0, i64 0
  %8 = call i32 (i8*, ...) bitcast (i32 (...)* @gets to i32 (i8*, ...)*)(i8* %7)
  %9 = getelementptr inbounds [100 x i8], [100 x i8]* %1, i64 0, i64 0
  %10 = call i32 @Strlen(i8* %9)
  %11 = sub nsw i32 %10, 1
  store i32 %11, i32* %4, align 4
  br label %12

12:                                               ; preds = %71, %0
  %13 = load i32, i32* %4, align 4
  %14 = icmp sge i32 %13, 0
  br i1 %14, label %15, label %74

15:                                               ; preds = %12
  %16 = load i32, i32* %4, align 4
  %17 = sext i32 %16 to i64
  %18 = getelementptr inbounds [100 x i8], [100 x i8]* %1, i64 0, i64 %17
  %19 = load i8, i8* %18, align 1
  %20 = sext i8 %19 to i32
  %21 = icmp ne i32 %20, 32
  br i1 %21, label %22, label %70

22:                                               ; preds = %15
  store i32 0, i32* %5, align 4
  br label %23

23:                                               ; preds = %43, %22
  %24 = load i32, i32* %4, align 4
  %25 = add nsw i32 %24, -1
  store i32 %25, i32* %4, align 4
  %26 = sext i32 %24 to i64
  %27 = getelementptr inbounds [100 x i8], [100 x i8]* %1, i64 0, i64 %26
  %28 = load i8, i8* %27, align 1
  %29 = load i32, i32* %5, align 4
  %30 = add nsw i32 %29, 1
  store i32 %30, i32* %5, align 4
  %31 = sext i32 %29 to i64
  %32 = getelementptr inbounds [20 x i8], [20 x i8]* %3, i64 0, i64 %31
  store i8 %28, i8* %32, align 1
  br label %33

33:                                               ; preds = %23
  %34 = load i32, i32* %4, align 4
  %35 = sext i32 %34 to i64
  %36 = getelementptr inbounds [100 x i8], [100 x i8]* %1, i64 0, i64 %35
  %37 = load i8, i8* %36, align 1
  %38 = sext i8 %37 to i32
  %39 = icmp ne i32 %38, 32
  br i1 %39, label %40, label %43

40:                                               ; preds = %33
  %41 = load i32, i32* %4, align 4
  %42 = icmp sge i32 %41, 0
  br label %43

43:                                               ; preds = %40, %33
  %44 = phi i1 [ false, %33 ], [ %42, %40 ]
  br i1 %44, label %23, label %45

45:                                               ; preds = %43
  %46 = load i32, i32* %5, align 4
  %47 = sext i32 %46 to i64
  %48 = getelementptr inbounds [20 x i8], [20 x i8]* %3, i64 0, i64 %47
  store i8 32, i8* %48, align 1
  %49 = load i32, i32* %5, align 4
  store i32 %49, i32* %5, align 4
  br label %50

50:                                               ; preds = %62, %45
  %51 = load i32, i32* %5, align 4
  %52 = icmp sge i32 %51, 0
  br i1 %52, label %53, label %67

53:                                               ; preds = %50
  %54 = load i32, i32* %5, align 4
  %55 = sext i32 %54 to i64
  %56 = getelementptr inbounds [20 x i8], [20 x i8]* %3, i64 0, i64 %55
  %57 = load i8, i8* %56, align 1
  %58 = load i32, i32* %6, align 4
  %59 = sub nsw i32 %58, 1
  %60 = sext i32 %59 to i64
  %61 = getelementptr inbounds [100 x i8], [100 x i8]* %2, i64 0, i64 %60
  store i8 %57, i8* %61, align 1
  br label %62

62:                                               ; preds = %53
  %63 = load i32, i32* %5, align 4
  %64 = add nsw i32 %63, -1
  store i32 %64, i32* %5, align 4
  %65 = load i32, i32* %6, align 4
  %66 = add nsw i32 %65, 1
  store i32 %66, i32* %6, align 4
  br label %50

67:                                               ; preds = %50
  %68 = load i32, i32* %4, align 4
  %69 = add nsw i32 %68, 1
  store i32 %69, i32* %4, align 4
  br label %70

70:                                               ; preds = %67, %15
  br label %71

71:                                               ; preds = %70
  %72 = load i32, i32* %4, align 4
  %73 = add nsw i32 %72, -1
  store i32 %73, i32* %4, align 4
  br label %12

74:                                               ; preds = %12
  %75 = load i32, i32* %6, align 4
  %76 = sub nsw i32 %75, 1
  %77 = sext i32 %76 to i64
  %78 = getelementptr inbounds [100 x i8], [100 x i8]* %2, i64 0, i64 %77
  store i8 0, i8* %78, align 1
  %79 = getelementptr inbounds [100 x i8], [100 x i8]* %2, i64 0, i64 0
  %80 = call i32 (i8*, ...) @printf(i8* getelementptr inbounds ([4 x i8], [4 x i8]* @.str, i64 0, i64 0), i8* %79)
  ret void
}

declare dso_local i32 @gets(...) #1

declare dso_local i32 @printf(i8*, ...) #1


!llvm.module.flags = !{!0}
!llvm.ident = !{!1}

!0 = !{i32 1, !"wchar_size", i32 4}
!1 = !{!"clang version 10.0.0-4ubuntu1 "}
